; Function Attrs: cold nounwind optsize uwtable
define internal range(i32 -12, 1) i32 @hdr_encode_init(ptr noundef readonly captures(none) %0) #0 {
  %2 = getelementptr inbounds nuw i8, ptr %0, i64 32
  %3 = load ptr, ptr %2, align 8, !tbaa !4
  %4 = getelementptr inbounds nuw i8, ptr %0, i64 112
  %5 = load i32, ptr %4, align 8, !tbaa !27
  %6 = shl nsw i32 %5, 2
  %7 = sext i32 %6 to i64
  %8 = tail call noalias ptr @av_calloc(i64 noundef %7, i64 noundef 1) #8
  store ptr %8, ptr %3, align 8, !tbaa !28
  %.not = icmp eq ptr %8, null
  %. = select i1 %.not, i32 -12, i32 0
  ret i32 %.
}